; Function Attrs: mustprogress nofree norecurse nosync nounwind willreturn memory(argmem: read) uwtable
define hidden noundef zeroext i1 @_ZN3sat10lut_finder14lut_is_definedEj(ptr noundef nonnull readonly align 8 captures(none) dereferenceable(176) %0, i32 noundef %1) local_unnamed_addr #5 align 2 {
  %3 = getelementptr inbounds nuw i8, ptr %0, i64 32
  %4 = load i32, ptr %3, align 8, !tbaa !63
  %5 = zext i32 %4 to i64
  %6 = lshr i32 %1, 1
  %7 = zext nneg i32 %6 to i64
  %.highbits = lshr i64 %5, %7
  %8 = icmp eq i64 %.highbits, 0
  br i1 %8, label %.loopexit, label %.preheader

.preheader:                                       ; preds = %2
  %9 = getelementptr inbounds nuw i8, ptr %0, i64 24
  %10 = load i64, ptr %9, align 8
  %11 = getelementptr inbounds nuw i8, ptr %0, i64 80
  %12 = icmp ult i32 %1, 6
  %13 = zext i32 %1 to i64
  %14 = shl nuw nsw i64 1, %13
  %notmask.i = shl nsw i64 -1, %14
  %15 = xor i64 %notmask.i, -1
  %16 = select i1 %12, i64 %15, i64 -1
  br label %17

17:                                               ; preds = %.preheader, %18
  %indvars.iv = phi i64 [ %13, %.preheader ], [ %19, %18 ]
  %.not.not.not.not = icmp ne i64 %indvars.iv, 0
  br i1 %.not.not.not.not, label %18, label %.loopexit

18:                                               ; preds = %17
  %19 = add nsw i64 %indvars.iv, -1
  %20 = getelementptr inbounds nuw [7 x i64], ptr %11, i64 0, i64 %19
  %21 = load i64, ptr %20, align 8, !tbaa !34
  %.0.i = and i64 %21, %16
  %22 = shl nuw i64 1, %19
  %23 = lshr i64 %10, %22
  %24 = or i64 %23, %10
  %25 = and i64 %24, %.0.i
  %26 = icmp eq i64 %25, %.0.i
  br i1 %26, label %.loopexit, label %17, !llvm.loop !70

.loopexit:                                        ; preds = %17, %18, %2
  %.08 = phi i1 [ false, %2 ], [ %.not.not.not.not, %18 ], [ %.not.not.not.not, %17 ]
  ret i1 %.08
}